target datalayout = "e-m:e-p270:32:32-p271:32:32-p272:64:64-i64:64-i128:128-f80:128-n8:16:32:64-S128"
target triple = "x86_64-pc-linux-gnu"

%"class.tbb::detail::d1::vector_iterator" = type { ptr, i64, ptr }
%"struct.__gnu_cxx::__ops::_Iter_comp_iter" = type { i8 }

; Function Attrs: mustprogress nounwind
define linkonce_odr dso_local void @_ZN3tbb6detail2d115vector_iteratorINS1_17concurrent_vectorIPN4mold11TimerRecordENS1_23cache_aligned_allocatorIS6_EEEES6_EC2ERKS9_mPS6_(ptr noundef nonnull align 8 dereferenceable(24) %0, ptr noundef nonnull align 8 dereferenceable(65) %1, i64 noundef %2, ptr noundef %3) unnamed_addr #4 comdat align 2 {
  %5 = alloca ptr, align 8
  %6 = alloca ptr, align 8
  %7 = alloca i64, align 8
  %8 = alloca ptr, align 8
  store ptr %0, ptr %5, align 8, !tbaa !165
  store ptr %1, ptr %6, align 8, !tbaa !76
  store i64 %2, ptr %7, align 8, !tbaa !39
  store ptr %3, ptr %8, align 8, !tbaa !85
  %9 = load ptr, ptr %5, align 8
  %10 = getelementptr inbounds nuw %"class.tbb::detail::d1::vector_iterator", ptr %9, i32 0, i32 0
  %11 = load ptr, ptr %6, align 8, !tbaa !76
  store ptr %11, ptr %10, align 8, !tbaa !169
  %12 = getelementptr inbounds nuw %"class.tbb::detail::d1::vector_iterator", ptr %9, i32 0, i32 1
  %13 = load i64, ptr %7, align 8, !tbaa !39
  store i64 %13, ptr %12, align 8, !tbaa !170
  %14 = getelementptr inbounds nuw %"class.tbb::detail::d1::vector_iterator", ptr %9, i32 0, i32 2
  %15 = load ptr, ptr %8, align 8, !tbaa !85
  store ptr %15, ptr %14, align 8, !tbaa !167
  ret void
}

; Function Attrs: mustprogress nounwind
define linkonce_odr dso_local void @_ZN3tbb6detail2d115vector_iteratorINS1_17concurrent_vectorIPN4mold11TimerRecordENS1_23cache_aligned_allocatorIS6_EEEES6_EC2ERKSA_(ptr noundef nonnull align 8 dereferenceable(24) %0, ptr noundef nonnull align 8 dereferenceable(24) %1) unnamed_addr #4 comdat align 2 {
  %3 = alloca ptr, align 8
  %4 = alloca ptr, align 8
  store ptr %0, ptr %3, align 8, !tbaa !165
  store ptr %1, ptr %4, align 8, !tbaa !165
  %5 = load ptr, ptr %3, align 8
  %6 = getelementptr inbounds nuw %"class.tbb::detail::d1::vector_iterator", ptr %5, i32 0, i32 0
  %7 = load ptr, ptr %4, align 8, !tbaa !165
  %8 = getelementptr inbounds nuw %"class.tbb::detail::d1::vector_iterator", ptr %7, i32 0, i32 0
  %9 = load ptr, ptr %8, align 8, !tbaa !169
  store ptr %9, ptr %6, align 8, !tbaa !169
  %10 = getelementptr inbounds nuw %"class.tbb::detail::d1::vector_iterator", ptr %5, i32 0, i32 1
  %11 = load ptr, ptr %4, align 8, !tbaa !165
  %12 = getelementptr inbounds nuw %"class.tbb::detail::d1::vector_iterator", ptr %11, i32 0, i32 1
  %13 = load i64, ptr %12, align 8, !tbaa !170
  store i64 %13, ptr %10, align 8, !tbaa !170
  %14 = getelementptr inbounds nuw %"class.tbb::detail::d1::vector_iterator", ptr %5, i32 0, i32 2
  %15 = load ptr, ptr %4, align 8, !tbaa !165
  %16 = getelementptr inbounds nuw %"class.tbb::detail::d1::vector_iterator", ptr %15, i32 0, i32 2
  %17 = load ptr, ptr %16, align 8, !tbaa !167
  store ptr %17, ptr %14, align 8, !tbaa !167
  ret void
}

; Function Attrs: mustprogress nounwind
define linkonce_odr dso_local void @_ZNK3tbb6detail2d115vector_iteratorINS1_17concurrent_vectorIPN4mold11TimerRecordENS1_23cache_aligned_allocatorIS6_EEEES6_EplEl(ptr dead_on_unwind noalias writable sret(%"class.tbb::detail::d1::vector_iterator") align 8 %0, ptr noundef nonnull align 8 dereferenceable(24) %1, i64 noundef %2) #4 comdat align 2 {
  %4 = alloca ptr, align 8
  %5 = alloca ptr, align 8
  %6 = alloca i64, align 8
  store ptr %0, ptr %4, align 8
  store ptr %1, ptr %5, align 8, !tbaa !165
  store i64 %2, ptr %6, align 8, !tbaa !39
  %7 = load ptr, ptr %5, align 8
  %8 = getelementptr inbounds nuw %"class.tbb::detail::d1::vector_iterator", ptr %7, i32 0, i32 0
  %9 = load ptr, ptr %8, align 8, !tbaa !169
  %10 = getelementptr inbounds nuw %"class.tbb::detail::d1::vector_iterator", ptr %7, i32 0, i32 1
  %11 = load i64, ptr %10, align 8, !tbaa !170
  %12 = load i64, ptr %6, align 8, !tbaa !39
  %13 = add i64 %11, %12
  call void @_ZN3tbb6detail2d115vector_iteratorINS1_17concurrent_vectorIPN4mold11TimerRecordENS1_23cache_aligned_allocatorIS6_EEEES6_EC2ERKS9_mPS6_(ptr noundef nonnull align 8 dereferenceable(24) %0, ptr noundef nonnull align 8 dereferenceable(65) %9, i64 noundef %13, ptr noundef null)
  ret void
}

; Function Attrs: mustprogress nounwind
define linkonce_odr dso_local noundef i64 @_ZN3tbb6detail2d1miINS1_17concurrent_vectorIPN4mold11TimerRecordENS1_23cache_aligned_allocatorIS6_EEEES6_S6_EENS1_15vector_iteratorIT_T0_E15difference_typeERKSD_RKNSA_ISB_T1_EE(ptr noundef nonnull align 8 dereferenceable(24) %0, ptr noundef nonnull align 8 dereferenceable(24) %1) #4 comdat {
  %3 = alloca ptr, align 8
  %4 = alloca ptr, align 8
  store ptr %0, ptr %3, align 8, !tbaa !165
  store ptr %1, ptr %4, align 8, !tbaa !165
  %5 = load ptr, ptr %3, align 8, !tbaa !165
  %6 = getelementptr inbounds nuw %"class.tbb::detail::d1::vector_iterator", ptr %5, i32 0, i32 1
  %7 = load i64, ptr %6, align 8, !tbaa !170
  %8 = load ptr, ptr %4, align 8, !tbaa !165
  %9 = getelementptr inbounds nuw %"class.tbb::detail::d1::vector_iterator", ptr %8, i32 0, i32 1
  %10 = load i64, ptr %9, align 8, !tbaa !170
  %11 = sub nsw i64 %7, %10
  ret i64 %11
}

; Function Attrs: mustprogress nounwind
define internal void @"_ZSt22__stable_sort_adaptiveIN3tbb6detail2d115vector_iteratorINS2_17concurrent_vectorIPN4mold11TimerRecordENS2_23cache_aligned_allocatorIS7_EEEES7_EEPS7_lN9__gnu_cxx5__ops15_Iter_comp_iterIZNS5_L9print_recERS6_lE3$_0EEEvT_SJ_T0_T1_T2_"(ptr noundef %0, ptr noundef %1, ptr noundef %2, i64 noundef %3) #4 {
  %5 = alloca %"struct.__gnu_cxx::__ops::_Iter_comp_iter", align 1
  %6 = alloca ptr, align 8
  %7 = alloca ptr, align 8
  %8 = alloca ptr, align 8
  %9 = alloca i64, align 8
  %10 = alloca i64, align 8
  %11 = alloca %"class.tbb::detail::d1::vector_iterator", align 8
  %12 = alloca %"class.tbb::detail::d1::vector_iterator", align 8
  %13 = alloca %"class.tbb::detail::d1::vector_iterator", align 8
  %14 = alloca %"struct.__gnu_cxx::__ops::_Iter_comp_iter", align 1
  %15 = alloca %"class.tbb::detail::d1::vector_iterator", align 8
  %16 = alloca %"class.tbb::detail::d1::vector_iterator", align 8
  %17 = alloca %"struct.__gnu_cxx::__ops::_Iter_comp_iter", align 1
  %18 = alloca %"class.tbb::detail::d1::vector_iterator", align 8
  %19 = alloca %"class.tbb::detail::d1::vector_iterator", align 8
  %20 = alloca %"struct.__gnu_cxx::__ops::_Iter_comp_iter", align 1
  %21 = alloca %"class.tbb::detail::d1::vector_iterator", align 8
  %22 = alloca %"class.tbb::detail::d1::vector_iterator", align 8
  %23 = alloca %"struct.__gnu_cxx::__ops::_Iter_comp_iter", align 1
  %24 = alloca %"class.tbb::detail::d1::vector_iterator", align 8
  %25 = alloca %"class.tbb::detail::d1::vector_iterator", align 8
  %26 = alloca %"class.tbb::detail::d1::vector_iterator", align 8
  %27 = alloca %"struct.__gnu_cxx::__ops::_Iter_comp_iter", align 1
  store ptr %0, ptr %6, align 8, !tbaa !165
  store ptr %1, ptr %7, align 8, !tbaa !165
  store ptr %2, ptr %8, align 8, !tbaa !85
  store i64 %3, ptr %9, align 8, !tbaa !39
  call void @llvm.lifetime.start.p0(i64 8, ptr %10) #3
  %28 = call noundef i64 @_ZN3tbb6detail2d1miINS1_17concurrent_vectorIPN4mold11TimerRecordENS1_23cache_aligned_allocatorIS6_EEEES6_S6_EENS1_15vector_iteratorIT_T0_E15difference_typeERKSD_RKNSA_ISB_T1_EE(ptr noundef nonnull align 8 dereferenceable(24) %1, ptr noundef nonnull align 8 dereferenceable(24) %0)
  %29 = add nsw i64 %28, 1
  %30 = sdiv i64 %29, 2
  store i64 %30, ptr %10, align 8, !tbaa !39
  call void @llvm.lifetime.start.p0(i64 24, ptr %11) #3
  %31 = load i64, ptr %10, align 8, !tbaa !39
  call void @_ZNK3tbb6detail2d115vector_iteratorINS1_17concurrent_vectorIPN4mold11TimerRecordENS1_23cache_aligned_allocatorIS6_EEEES6_EplEl(ptr dead_on_unwind writable sret(%"class.tbb::detail::d1::vector_iterator") align 8 %11, ptr noundef nonnull align 8 dereferenceable(24) %0, i64 noundef %31)
  %32 = load i64, ptr %10, align 8, !tbaa !39
  %33 = load i64, ptr %9, align 8, !tbaa !39
  %34 = icmp sgt i64 %32, %33
  br i1 %34, label %35, label %40

35:                                               ; preds = %4
  call void @_ZN3tbb6detail2d115vector_iteratorINS1_17concurrent_vectorIPN4mold11TimerRecordENS1_23cache_aligned_allocatorIS6_EEEES6_EC2ERKSA_(ptr noundef nonnull align 8 dereferenceable(24) %12, ptr noundef nonnull align 8 dereferenceable(24) %0)
  call void @_ZN3tbb6detail2d115vector_iteratorINS1_17concurrent_vectorIPN4mold11TimerRecordENS1_23cache_aligned_allocatorIS6_EEEES6_EC2ERKSA_(ptr noundef nonnull align 8 dereferenceable(24) %13, ptr noundef nonnull align 8 dereferenceable(24) %11)
  %36 = load ptr, ptr %8, align 8, !tbaa !85
  %37 = load i64, ptr %9, align 8, !tbaa !39
  call void @llvm.memcpy.p0.p0.i64(ptr align 1 %14, ptr align 1 %5, i64 1, i1 false), !tbaa.struct !87
  call void @"_ZSt22__stable_sort_adaptiveIN3tbb6detail2d115vector_iteratorINS2_17concurrent_vectorIPN4mold11TimerRecordENS2_23cache_aligned_allocatorIS7_EEEES7_EEPS7_lN9__gnu_cxx5__ops15_Iter_comp_iterIZNS5_L9print_recERS6_lE3$_0EEEvT_SJ_T0_T1_T2_"(ptr noundef %12, ptr noundef %13, ptr noundef %36, i64 noundef %37)
  call void @_ZN3tbb6detail2d115vector_iteratorINS1_17concurrent_vectorIPN4mold11TimerRecordENS1_23cache_aligned_allocatorIS6_EEEES6_EC2ERKSA_(ptr noundef nonnull align 8 dereferenceable(24) %15, ptr noundef nonnull align 8 dereferenceable(24) %11)
  call void @_ZN3tbb6detail2d115vector_iteratorINS1_17concurrent_vectorIPN4mold11TimerRecordENS1_23cache_aligned_allocatorIS6_EEEES6_EC2ERKSA_(ptr noundef nonnull align 8 dereferenceable(24) %16, ptr noundef nonnull align 8 dereferenceable(24) %1)
  %38 = load ptr, ptr %8, align 8, !tbaa !85
  %39 = load i64, ptr %9, align 8, !tbaa !39
  call void @llvm.memcpy.p0.p0.i64(ptr align 1 %17, ptr align 1 %5, i64 1, i1 false), !tbaa.struct !87
  call void @"_ZSt22__stable_sort_adaptiveIN3tbb6detail2d115vector_iteratorINS2_17concurrent_vectorIPN4mold11TimerRecordENS2_23cache_aligned_allocatorIS7_EEEES7_EEPS7_lN9__gnu_cxx5__ops15_Iter_comp_iterIZNS5_L9print_recERS6_lE3$_0EEEvT_SJ_T0_T1_T2_"(ptr noundef %15, ptr noundef %16, ptr noundef %38, i64 noundef %39)
  br label %43

40:                                               ; preds = %4
  call void @_ZN3tbb6detail2d115vector_iteratorINS1_17concurrent_vectorIPN4mold11TimerRecordENS1_23cache_aligned_allocatorIS6_EEEES6_EC2ERKSA_(ptr noundef nonnull align 8 dereferenceable(24) %18, ptr noundef nonnull align 8 dereferenceable(24) %0)
  call void @_ZN3tbb6detail2d115vector_iteratorINS1_17concurrent_vectorIPN4mold11TimerRecordENS1_23cache_aligned_allocatorIS6_EEEES6_EC2ERKSA_(ptr noundef nonnull align 8 dereferenceable(24) %19, ptr noundef nonnull align 8 dereferenceable(24) %11)
  %41 = load ptr, ptr %8, align 8, !tbaa !85
  call void @llvm.memcpy.p0.p0.i64(ptr align 1 %20, ptr align 1 %5, i64 1, i1 false), !tbaa.struct !87
  call void @"_ZSt24__merge_sort_with_bufferIN3tbb6detail2d115vector_iteratorINS2_17concurrent_vectorIPN4mold11TimerRecordENS2_23cache_aligned_allocatorIS7_EEEES7_EEPS7_N9__gnu_cxx5__ops15_Iter_comp_iterIZNS5_L9print_recERS6_lE3$_0EEEvT_SJ_T0_T1_"(ptr noundef %18, ptr noundef %19, ptr noundef %41)
  call void @_ZN3tbb6detail2d115vector_iteratorINS1_17concurrent_vectorIPN4mold11TimerRecordENS1_23cache_aligned_allocatorIS6_EEEES6_EC2ERKSA_(ptr noundef nonnull align 8 dereferenceable(24) %21, ptr noundef nonnull align 8 dereferenceable(24) %11)
  call void @_ZN3tbb6detail2d115vector_iteratorINS1_17concurrent_vectorIPN4mold11TimerRecordENS1_23cache_aligned_allocatorIS6_EEEES6_EC2ERKSA_(ptr noundef nonnull align 8 dereferenceable(24) %22, ptr noundef nonnull align 8 dereferenceable(24) %1)
  %42 = load ptr, ptr %8, align 8, !tbaa !85
  call void @llvm.memcpy.p0.p0.i64(ptr align 1 %23, ptr align 1 %5, i64 1, i1 false), !tbaa.struct !87
  call void @"_ZSt24__merge_sort_with_bufferIN3tbb6detail2d115vector_iteratorINS2_17concurrent_vectorIPN4mold11TimerRecordENS2_23cache_aligned_allocatorIS7_EEEES7_EEPS7_N9__gnu_cxx5__ops15_Iter_comp_iterIZNS5_L9print_recERS6_lE3$_0EEEvT_SJ_T0_T1_"(ptr noundef %21, ptr noundef %22, ptr noundef %42)
  br label %43

43:                                               ; preds = %40, %35
  call void @_ZN3tbb6detail2d115vector_iteratorINS1_17concurrent_vectorIPN4mold11TimerRecordENS1_23cache_aligned_allocatorIS6_EEEES6_EC2ERKSA_(ptr noundef nonnull align 8 dereferenceable(24) %24, ptr noundef nonnull align 8 dereferenceable(24) %0)
  call void @_ZN3tbb6detail2d115vector_iteratorINS1_17concurrent_vectorIPN4mold11TimerRecordENS1_23cache_aligned_allocatorIS6_EEEES6_EC2ERKSA_(ptr noundef nonnull align 8 dereferenceable(24) %25, ptr noundef nonnull align 8 dereferenceable(24) %11)
  call void @_ZN3tbb6detail2d115vector_iteratorINS1_17concurrent_vectorIPN4mold11TimerRecordENS1_23cache_aligned_allocatorIS6_EEEES6_EC2ERKSA_(ptr noundef nonnull align 8 dereferenceable(24) %26, ptr noundef nonnull align 8 dereferenceable(24) %1)
  %44 = call noundef i64 @_ZN3tbb6detail2d1miINS1_17concurrent_vectorIPN4mold11TimerRecordENS1_23cache_aligned_allocatorIS6_EEEES6_S6_EENS1_15vector_iteratorIT_T0_E15difference_typeERKSD_RKNSA_ISB_T1_EE(ptr noundef nonnull align 8 dereferenceable(24) %11, ptr noundef nonnull align 8 dereferenceable(24) %0)
  %45 = call noundef i64 @_ZN3tbb6detail2d1miINS1_17concurrent_vectorIPN4mold11TimerRecordENS1_23cache_aligned_allocatorIS6_EEEES6_S6_EENS1_15vector_iteratorIT_T0_E15difference_typeERKSD_RKNSA_ISB_T1_EE(ptr noundef nonnull align 8 dereferenceable(24) %1, ptr noundef nonnull align 8 dereferenceable(24) %11)
  %46 = load ptr, ptr %8, align 8, !tbaa !85
  %47 = load i64, ptr %9, align 8, !tbaa !39
  call void @llvm.memcpy.p0.p0.i64(ptr align 1 %27, ptr align 1 %5, i64 1, i1 false), !tbaa.struct !87
  call void @"_ZSt16__merge_adaptiveIN3tbb6detail2d115vector_iteratorINS2_17concurrent_vectorIPN4mold11TimerRecordENS2_23cache_aligned_allocatorIS7_EEEES7_EElPS7_N9__gnu_cxx5__ops15_Iter_comp_iterIZNS5_L9print_recERS6_lE3$_0EEEvT_SJ_SJ_T0_SK_T1_SK_T2_"(ptr noundef %24, ptr noundef %25, ptr noundef %26, i64 noundef %44, i64 noundef %45, ptr noundef %46, i64 noundef %47)
  call void @llvm.lifetime.end.p0(i64 24, ptr %11) #3
  call void @llvm.lifetime.end.p0(i64 8, ptr %10) #3
  ret void
}