; Function Attrs: mustprogress nounwind
define internal fastcc void @"_ZSt22__stable_sort_adaptiveIN3tbb6detail2d115vector_iteratorINS2_17concurrent_vectorIPN4mold11TimerRecordENS2_23cache_aligned_allocatorIS7_EEEES7_EEPS7_lN9__gnu_cxx5__ops15_Iter_comp_iterIZNS5_L9print_recERS6_lE3$_0EEEvT_SJ_T0_T1_T2_"(ptr noundef nonnull readonly captures(none) %0, ptr noundef nonnull readonly captures(none) %1, ptr noundef %2, i64 noundef %3) unnamed_addr #4 {
  %5 = alloca %"class.tbb::detail::d1::vector_iterator", align 8
  %6 = alloca %"class.tbb::detail::d1::vector_iterator", align 8
  %7 = alloca %"class.tbb::detail::d1::vector_iterator", align 8
  %8 = alloca %"class.tbb::detail::d1::vector_iterator", align 8
  %9 = alloca %"class.tbb::detail::d1::vector_iterator", align 8
  %10 = alloca %"class.tbb::detail::d1::vector_iterator", align 8
  %11 = alloca %"class.tbb::detail::d1::vector_iterator", align 8
  %12 = alloca %"class.tbb::detail::d1::vector_iterator", align 8
  %13 = alloca %"class.tbb::detail::d1::vector_iterator", align 8
  %14 = alloca %"class.tbb::detail::d1::vector_iterator", align 8
  %15 = alloca %"class.tbb::detail::d1::vector_iterator", align 8
  %16 = getelementptr inbounds nuw i8, ptr %1, i64 8
  %17 = load i64, ptr %16, align 8, !tbaa !130
  %18 = getelementptr inbounds nuw i8, ptr %0, i64 8
  %19 = load i64, ptr %18, align 8, !tbaa !130
  %20 = add i64 %17, 1
  %21 = sub i64 %20, %19
  %22 = sdiv i64 %21, 2
  %23 = load ptr, ptr %0, align 8, !tbaa !127, !noalias !138
  %24 = add i64 %22, %19
  %25 = icmp sgt i64 %22, %3
  %26 = getelementptr inbounds nuw i8, ptr %0, i64 16
  br i1 %25, label %27, label %41

27:                                               ; preds = %4
  store ptr %23, ptr %5, align 8, !tbaa !127
  %28 = getelementptr inbounds nuw i8, ptr %5, i64 8
  store i64 %19, ptr %28, align 8, !tbaa !130
  %29 = getelementptr inbounds nuw i8, ptr %5, i64 16
  %30 = load ptr, ptr %26, align 8, !tbaa !131
  store ptr %30, ptr %29, align 8, !tbaa !131
  store ptr %23, ptr %6, align 8, !tbaa !127
  %31 = getelementptr inbounds nuw i8, ptr %6, i64 8
  store i64 %24, ptr %31, align 8, !tbaa !130
  %32 = getelementptr inbounds nuw i8, ptr %6, i64 16
  store ptr null, ptr %32, align 8, !tbaa !131
  call fastcc void @"_ZSt22__stable_sort_adaptiveIN3tbb6detail2d115vector_iteratorINS2_17concurrent_vectorIPN4mold11TimerRecordENS2_23cache_aligned_allocatorIS7_EEEES7_EEPS7_lN9__gnu_cxx5__ops15_Iter_comp_iterIZNS5_L9print_recERS6_lE3$_0EEEvT_SJ_T0_T1_T2_"(ptr noundef %5, ptr noundef %6, ptr noundef %2, i64 noundef %3)
  store ptr %23, ptr %7, align 8, !tbaa !127
  %33 = getelementptr inbounds nuw i8, ptr %7, i64 8
  store i64 %24, ptr %33, align 8, !tbaa !130
  %34 = getelementptr inbounds nuw i8, ptr %7, i64 16
  store ptr null, ptr %34, align 8, !tbaa !131
  %35 = load ptr, ptr %1, align 8, !tbaa !127
  store ptr %35, ptr %8, align 8, !tbaa !127
  %36 = getelementptr inbounds nuw i8, ptr %8, i64 8
  %37 = load i64, ptr %16, align 8, !tbaa !130
  store i64 %37, ptr %36, align 8, !tbaa !130
  %38 = getelementptr inbounds nuw i8, ptr %8, i64 16
  %39 = getelementptr inbounds nuw i8, ptr %1, i64 16
  %40 = load ptr, ptr %39, align 8, !tbaa !131
  store ptr %40, ptr %38, align 8, !tbaa !131
  call fastcc void @"_ZSt22__stable_sort_adaptiveIN3tbb6detail2d115vector_iteratorINS2_17concurrent_vectorIPN4mold11TimerRecordENS2_23cache_aligned_allocatorIS7_EEEES7_EEPS7_lN9__gnu_cxx5__ops15_Iter_comp_iterIZNS5_L9print_recERS6_lE3$_0EEEvT_SJ_T0_T1_T2_"(ptr noundef %7, ptr noundef %8, ptr noundef %2, i64 noundef %3)
  br label %55

41:                                               ; preds = %4
  store ptr %23, ptr %9, align 8, !tbaa !127
  %42 = getelementptr inbounds nuw i8, ptr %9, i64 8
  store i64 %19, ptr %42, align 8, !tbaa !130
  %43 = getelementptr inbounds nuw i8, ptr %9, i64 16
  %44 = load ptr, ptr %26, align 8, !tbaa !131
  store ptr %44, ptr %43, align 8, !tbaa !131
  store ptr %23, ptr %10, align 8, !tbaa !127
  %45 = getelementptr inbounds nuw i8, ptr %10, i64 8
  store i64 %24, ptr %45, align 8, !tbaa !130
  %46 = getelementptr inbounds nuw i8, ptr %10, i64 16
  store ptr null, ptr %46, align 8, !tbaa !131
  call fastcc void @"_ZSt24__merge_sort_with_bufferIN3tbb6detail2d115vector_iteratorINS2_17concurrent_vectorIPN4mold11TimerRecordENS2_23cache_aligned_allocatorIS7_EEEES7_EEPS7_N9__gnu_cxx5__ops15_Iter_comp_iterIZNS5_L9print_recERS6_lE3$_0EEEvT_SJ_T0_T1_"(ptr noundef %9, ptr noundef %10, ptr noundef %2)
  store ptr %23, ptr %11, align 8, !tbaa !127
  %47 = getelementptr inbounds nuw i8, ptr %11, i64 8
  store i64 %24, ptr %47, align 8, !tbaa !130
  %48 = getelementptr inbounds nuw i8, ptr %11, i64 16
  store ptr null, ptr %48, align 8, !tbaa !131
  %49 = load ptr, ptr %1, align 8, !tbaa !127
  store ptr %49, ptr %12, align 8, !tbaa !127
  %50 = getelementptr inbounds nuw i8, ptr %12, i64 8
  %51 = load i64, ptr %16, align 8, !tbaa !130
  store i64 %51, ptr %50, align 8, !tbaa !130
  %52 = getelementptr inbounds nuw i8, ptr %12, i64 16
  %53 = getelementptr inbounds nuw i8, ptr %1, i64 16
  %54 = load ptr, ptr %53, align 8, !tbaa !131
  store ptr %54, ptr %52, align 8, !tbaa !131
  call fastcc void @"_ZSt24__merge_sort_with_bufferIN3tbb6detail2d115vector_iteratorINS2_17concurrent_vectorIPN4mold11TimerRecordENS2_23cache_aligned_allocatorIS7_EEEES7_EEPS7_N9__gnu_cxx5__ops15_Iter_comp_iterIZNS5_L9print_recERS6_lE3$_0EEEvT_SJ_T0_T1_"(ptr noundef %11, ptr noundef %12, ptr noundef %2)
  br label %55

55:                                               ; preds = %41, %27
  %56 = load ptr, ptr %0, align 8, !tbaa !127
  store ptr %56, ptr %13, align 8, !tbaa !127
  %57 = getelementptr inbounds nuw i8, ptr %13, i64 8
  %58 = load i64, ptr %18, align 8, !tbaa !130
  store i64 %58, ptr %57, align 8, !tbaa !130
  %59 = getelementptr inbounds nuw i8, ptr %13, i64 16
  %60 = getelementptr inbounds nuw i8, ptr %0, i64 16
  %61 = load ptr, ptr %60, align 8, !tbaa !131
  store ptr %61, ptr %59, align 8, !tbaa !131
  store ptr %23, ptr %14, align 8, !tbaa !127
  %62 = getelementptr inbounds nuw i8, ptr %14, i64 8
  store i64 %24, ptr %62, align 8, !tbaa !130
  %63 = getelementptr inbounds nuw i8, ptr %14, i64 16
  store ptr null, ptr %63, align 8, !tbaa !131
  %64 = load ptr, ptr %1, align 8, !tbaa !127
  store ptr %64, ptr %15, align 8, !tbaa !127
  %65 = getelementptr inbounds nuw i8, ptr %15, i64 8
  %66 = load i64, ptr %16, align 8, !tbaa !130
  store i64 %66, ptr %65, align 8, !tbaa !130
  %67 = getelementptr inbounds nuw i8, ptr %15, i64 16
  %68 = getelementptr inbounds nuw i8, ptr %1, i64 16
  %69 = load ptr, ptr %68, align 8, !tbaa !131
  store ptr %69, ptr %67, align 8, !tbaa !131
  %70 = sub nsw i64 %24, %58
  %71 = sub nsw i64 %66, %24
  call fastcc void @"_ZSt16__merge_adaptiveIN3tbb6detail2d115vector_iteratorINS2_17concurrent_vectorIPN4mold11TimerRecordENS2_23cache_aligned_allocatorIS7_EEEES7_EElPS7_N9__gnu_cxx5__ops15_Iter_comp_iterIZNS5_L9print_recERS6_lE3$_0EEEvT_SJ_SJ_T0_SK_T1_SK_T2_"(ptr noundef %13, ptr noundef %14, ptr noundef %15, i64 noundef %70, i64 noundef %71, ptr noundef %2, i64 noundef %3)
  ret void
}